target datalayout = "e-m:e-p270:32:32-p271:32:32-p272:64:64-i64:64-i128:128-f80:128-n8:16:32:64-S128"
target triple = "x86_64-pc-linux-gnu"

%struct.job_record = type { i32, ptr, ptr, ptr, ptr, i16, i32, i32, i32, ptr, i32, ptr, ptr, i16, ptr, double, i64, ptr, ptr, ptr, ptr, ptr, ptr, i32, ptr, i32, i64, i64, i32, i32, ptr, i16, i64, i64, i8, i32, ptr, ptr, ptr, ptr, ptr, ptr, ptr, ptr, i32, ptr, ptr, i32, ptr, i32, ptr, i32, ptr, i32, ptr, ptr, ptr, ptr, ptr, ptr, i32, i16, i64, ptr, ptr, ptr, ptr, %struct.acct_policy_limit_set_t, i16, ptr, ptr, ptr, ptr, ptr, i32, ptr, ptr, ptr, ptr, ptr, i32, i32, ptr, ptr, ptr, i16, ptr, ptr, i8, ptr, ptr, i64, i64, i8, i32, i32, i8, i32, ptr, i32, i64, i32, ptr, ptr, ptr, i8, i16, i64, i32, ptr, ptr, ptr, ptr, ptr, i16, i32, ptr, ptr, ptr, ptr, i32, ptr, i32, i16, i64, ptr, i32, i32, ptr, i64, ptr, ptr, i64, i32, i32, i64, i32, i32, ptr, ptr, ptr, ptr, ptr, ptr, ptr, ptr, ptr, ptr, ptr, ptr, i32, ptr, i16, i16, i16, i16, ptr, i32, i32, i8, i64 }
%struct.acct_policy_limit_set_t = type { i16, i16, ptr }
%struct.job_array_struct = type { i32, ptr, ptr, i32, i32, i32, i32, i32, i32, i32 }
%struct.job_details_t = type { i32, ptr, i64, ptr, i32, ptr, i64, ptr, i16, i16, ptr, i16, i32, i32, i32, i16, ptr, i16, ptr, ptr, ptr, i16, ptr, ptr, ptr, ptr, i32, ptr, ptr, ptr, ptr, ptr, i32, i32, i32, ptr, ptr, i16, i32, i32, i32, i32, i32, i32, i16, i16, i32, i8, i8, i32, i32, i64, i64, i16, i32, ptr, ptr, i8, ptr, i32, ptr, i64, ptr, ptr, i16, i16, i16, i8, ptr, ptr, ptr, ptr, ptr, ptr, i64, i32, i32, i8, ptr, i16, ptr, ptr, i16 }
%struct.acct_policy_accrue_t = type { ptr, ptr, i32, ptr, i8, i64, ptr, i32, ptr, ptr }

; Function Attrs: nounwind uwtable
define internal void @_handle_accrue_time(ptr noundef %0) #0 {
  %2 = alloca ptr, align 8
  %3 = alloca ptr, align 8
  %4 = alloca i32, align 4
  store ptr %0, ptr %2, align 8
  call void @llvm.lifetime.start.p0(i64 8, ptr %3) #8
  %5 = load ptr, ptr %2, align 8
  %6 = getelementptr inbounds nuw %struct.acct_policy_accrue_t, ptr %5, i32 0, i32 3
  %7 = load ptr, ptr %6, align 8
  store ptr %7, ptr %3, align 8
  %8 = load ptr, ptr %3, align 8
  %9 = getelementptr inbounds nuw %struct.job_record, ptr %8, i32 0, i32 30
  %10 = load ptr, ptr %9, align 8
  %11 = getelementptr inbounds nuw %struct.job_details_t, ptr %10, i32 0, i32 2
  %12 = load i64, ptr %11, align 8
  %13 = icmp ne i64 %12, 0
  br i1 %13, label %14, label %79

14:                                               ; preds = %1
  %15 = load ptr, ptr %3, align 8
  %16 = getelementptr inbounds nuw %struct.job_record, ptr %15, i32 0, i32 16
  %17 = load i64, ptr %16, align 8
  %18 = and i64 %17, 262144
  %19 = icmp ne i64 %18, 0
  br i1 %19, label %59, label %20

20:                                               ; preds = %14
  %21 = load ptr, ptr %3, align 8
  %22 = getelementptr inbounds nuw %struct.job_record, ptr %21, i32 0, i32 60
  %23 = load i32, ptr %22, align 8
  %24 = and i32 %23, 255
  %25 = icmp eq i32 %24, 0
  br i1 %25, label %59, label %26

26:                                               ; preds = %20
  %27 = load ptr, ptr %3, align 8
  %28 = getelementptr inbounds nuw %struct.job_record, ptr %27, i32 0, i32 9
  %29 = load ptr, ptr %28, align 8
  %30 = icmp ne ptr %29, null
  br i1 %30, label %31, label %46

31:                                               ; preds = %26
  %32 = load ptr, ptr %3, align 8
  %33 = getelementptr inbounds nuw %struct.job_record, ptr %32, i32 0, i32 9
  %34 = load ptr, ptr %33, align 8
  %35 = getelementptr inbounds nuw %struct.job_array_struct, ptr %34, i32 0, i32 0
  %36 = load i32, ptr %35, align 8
  %37 = icmp ne i32 %36, 0
  br i1 %37, label %38, label %46

38:                                               ; preds = %31
  %39 = load ptr, ptr %3, align 8
  %40 = getelementptr inbounds nuw %struct.job_record, ptr %39, i32 0, i32 9
  %41 = load ptr, ptr %40, align 8
  %42 = getelementptr inbounds nuw %struct.job_array_struct, ptr %41, i32 0, i32 0
  %43 = load i32, ptr %42, align 8
  %44 = load ptr, ptr %2, align 8
  %45 = getelementptr inbounds nuw %struct.acct_policy_accrue_t, ptr %44, i32 0, i32 2
  store i32 %43, ptr %45, align 8
  br label %49

46:                                               ; preds = %31, %26
  %47 = load ptr, ptr %2, align 8
  %48 = getelementptr inbounds nuw %struct.acct_policy_accrue_t, ptr %47, i32 0, i32 2
  store i32 1, ptr %48, align 8
  br label %49

49:                                               ; preds = %46, %38
  %50 = load ptr, ptr %3, align 8
  %51 = getelementptr inbounds nuw %struct.job_record, ptr %50, i32 0, i32 16
  %52 = load i64, ptr %51, align 8
  %53 = or i64 %52, 262144
  store i64 %53, ptr %51, align 8
  %54 = load ptr, ptr %3, align 8
  %55 = getelementptr inbounds nuw %struct.job_record, ptr %54, i32 0, i32 103
  %56 = load ptr, ptr %55, align 8
  %57 = load ptr, ptr %2, align 8
  %58 = call i32 @_for_each_qos_remove_accrue_time(ptr noundef %56, ptr noundef %57)
  br label %59

59:                                               ; preds = %49, %20, %14
  %60 = load ptr, ptr %3, align 8
  %61 = getelementptr inbounds nuw %struct.job_record, ptr %60, i32 0, i32 60
  %62 = load i32, ptr %61, align 8
  %63 = and i32 %62, 255
  %64 = icmp eq i32 %63, 0
  br i1 %64, label %65, label %77

65:                                               ; preds = %59
  %66 = load ptr, ptr %3, align 8
  %67 = getelementptr inbounds nuw %struct.job_record, ptr %66, i32 0, i32 9
  %68 = load ptr, ptr %67, align 8
  %69 = icmp ne ptr %68, null
  br i1 %69, label %70, label %77

70:                                               ; preds = %65
  %71 = load ptr, ptr %3, align 8
  %72 = getelementptr inbounds nuw %struct.job_record, ptr %71, i32 0, i32 9
  %73 = load ptr, ptr %72, align 8
  %74 = getelementptr inbounds nuw %struct.job_array_struct, ptr %73, i32 0, i32 0
  %75 = load i32, ptr %74, align 8
  %76 = icmp ne i32 %75, 0
  br i1 %76, label %78, label %77

77:                                               ; preds = %70, %65, %59
  store i32 1, ptr %4, align 4
  br label %89

78:                                               ; preds = %70
  br label %87

79:                                               ; preds = %1
  %80 = load ptr, ptr %3, align 8
  %81 = getelementptr inbounds nuw %struct.job_record, ptr %80, i32 0, i32 60
  %82 = load i32, ptr %81, align 8
  %83 = and i32 %82, 255
  %84 = icmp eq i32 %83, 0
  br i1 %84, label %86, label %85

85:                                               ; preds = %79
  store i32 1, ptr %4, align 4
  br label %89

86:                                               ; preds = %79
  br label %87

87:                                               ; preds = %86, %78
  %88 = load ptr, ptr %2, align 8
  call void @_handle_add_accrue(ptr noundef %88)
  store i32 0, ptr %4, align 4
  br label %89

89:                                               ; preds = %87, %85, %77
  call void @llvm.lifetime.end.p0(i64 8, ptr %3) #8
  %90 = load i32, ptr %4, align 4
  switch i32 %90, label %92 [
    i32 0, label %91
    i32 1, label %91
  ]

91:                                               ; preds = %89, %89
  ret void

92:                                               ; preds = %89
  unreachable
}