; Function Attrs: nounwind uwtable
define internal fastcc void @_handle_accrue_time(ptr noundef nonnull captures(none) %0) unnamed_addr #0 {
  %2 = getelementptr inbounds nuw i8, ptr %0, i64 24
  %3 = load ptr, ptr %2, align 8
  %4 = getelementptr inbounds nuw i8, ptr %3, i64 216
  %5 = load ptr, ptr %4, align 8
  %6 = getelementptr inbounds nuw i8, ptr %5, i64 16
  %7 = load i64, ptr %6, align 8
  %.not = icmp eq i64 %7, 0
  br i1 %.not, label %39, label %8

8:                                                ; preds = %1
  %9 = getelementptr inbounds nuw i8, ptr %3, i64 112
  %10 = load i64, ptr %9, align 8
  %11 = and i64 %10, 262144
  %.not19 = icmp eq i64 %11, 0
  br i1 %.not19, label %12, label %29

12:                                               ; preds = %8
  %13 = getelementptr inbounds nuw i8, ptr %3, i64 448
  %14 = load i32, ptr %13, align 8
  %15 = and i32 %14, 255
  %16 = icmp eq i32 %15, 0
  br i1 %16, label %29, label %17

17:                                               ; preds = %12
  %18 = getelementptr inbounds nuw i8, ptr %3, i64 56
  %19 = load ptr, ptr %18, align 8
  %.not20 = icmp eq ptr %19, null
  br i1 %.not20, label %22, label %20

20:                                               ; preds = %17
  %21 = load i32, ptr %19, align 8
  %.not21 = icmp eq i32 %21, 0
  br i1 %.not21, label %22, label %23

22:                                               ; preds = %20, %17
  br label %23

23:                                               ; preds = %20, %22
  %.sink = phi i32 [ 1, %22 ], [ %21, %20 ]
  %24 = getelementptr inbounds nuw i8, ptr %0, i64 16
  store i32 %.sink, ptr %24, align 8
  %25 = load i64, ptr %9, align 8
  %26 = or i64 %25, 262144
  store i64 %26, ptr %9, align 8
  %27 = getelementptr inbounds nuw i8, ptr %3, i64 768
  %28 = load ptr, ptr %27, align 8
  tail call fastcc void @_for_each_qos_remove_accrue_time(ptr noundef %28, ptr noundef %0)
  br label %29

29:                                               ; preds = %23, %12, %8
  %30 = getelementptr inbounds nuw i8, ptr %3, i64 448
  %31 = load i32, ptr %30, align 8
  %32 = and i32 %31, 255
  %33 = icmp eq i32 %32, 0
  br i1 %33, label %34, label %45

34:                                               ; preds = %29
  %35 = getelementptr inbounds nuw i8, ptr %3, i64 56
  %36 = load ptr, ptr %35, align 8
  %.not22 = icmp eq ptr %36, null
  br i1 %.not22, label %45, label %37

37:                                               ; preds = %34
  %38 = load i32, ptr %36, align 8
  %.not23 = icmp eq i32 %38, 0
  br i1 %.not23, label %45, label %44

39:                                               ; preds = %1
  %40 = getelementptr inbounds nuw i8, ptr %3, i64 448
  %41 = load i32, ptr %40, align 8
  %42 = and i32 %41, 255
  %43 = icmp eq i32 %42, 0
  br i1 %43, label %44, label %45

44:                                               ; preds = %39, %37
  tail call fastcc void @_handle_add_accrue(ptr noundef %0)
  br label %45

45:                                               ; preds = %39, %29, %34, %37, %44
  ret void
}